(lp1
ccopy_reg
_reconstructor
p2
((lp1
(S'The'
p2
S'DT'
p3
tp4
a(S'quick'
p5
S'NN'
p6
tp7
a(S'brown'
p8
g6
tp9
a(S'fox'
p10
g6
tp11
a(S'jumped'
p12
S'VBD'
p13
tp14
a(S'over'
p15
S'IN'
p16
tp17
a(S'the'
p18
g3
tp19
a(S'lazy'
p20
g6
tp21
a(S'dog.'
p22
S'NNP'
p23
tp24
a.