(lp1
(S'The'
p2
S'DT'
p3
tp4
a(S'quick'
p5
S'NN'
p6
tp7
a(S'brown'
p8
g6
tp9
a(S'fox'
p10
g6
tp11
a(S'jumped'
p12
S'VBD'
p13
tp14
a(S'over'
p15
S'IN'
p16
tp17
a(S'the'
p18
g3
tp19
a(S'lazy'
p20
g6
tp21
a(S'dog.'
p22
S'NNP'
p23
tp24
a(S'The'
p25
g23
tp26
a(S'quick'
p27
g6
tp28
a(S'brown'
p29
g6
tp30
a(S'fox'
p31
g6
tp32
a(S'jumped'
p33
g13
tp34
a(S'over'
p35
g16
tp36
a(S'the'
p37
g3
tp38
a(S'lazy'
p39
g6
tp40
a(S'dog.'
p41
g23
tp42
a(S'The'
p43
g23
tp44
a(S'quick'
p45
g6
tp46
a(S'brown'
p47
g6
tp48
a(S'fox'
p49
g6
tp50
a(S'jumped'
p51
g13
tp52
a(S'over'
p53
g16
tp54
a(S'the'
p55
g3
tp56
a(S'lazy'
p57
g6
tp58
a(S'dog.'
p59
g23
tp60
a(S'The'
p61
g23
tp62
a(S'quick'
p63
g6
tp64
a(S'brown'
p65
g6
tp66
a(S'fox'
p67
g6
tp68
a(S'jumped'
p69
g13
tp70
a(S'over'
p71
g16
tp72
a(S'the'
p73
g3
tp74
a(S'lazy'
p75
g6
tp76
a(S'dog.'
p77
g23
tp78
a(S'The'
p79
g23
tp80
a(S'quick'
p81
g6
tp82
a(S'brown'
p83
g6
tp84
a(S'fox'
p85
g6
tp86
a(S'jumped'
p87
g13
tp88
a(S'over'
p89
g16
tp90
a(S'the'
p91
g3
tp92
a(S'lazy'
p93
g6
tp94
a(S'dog.'
p95
g23
tp96
a(S'The'
p97
g23
tp98
a(S'quick'
p99
g6
tp100
a(S'brown'
p101
g6
tp102
a(S'fox'
p103
g6
tp104
a(S'jumped'
p105
g13
tp106
a(S'over'
p107
g16
tp108
a(S'the'
p109
g3
tp110
a(S'lazy'
p111
g6
tp112
a(S'dog.'
p113
g23
tp114
a(S'The'
p115
g23
tp116
a(S'quick'
p117
g6
tp118
a(S'brown'
p119
g6
tp120
a(S'fox'
p121
g6
tp122
a(S'jumped'
p123
g13
tp124
a(S'over'
p125
g16
tp126
a(S'the'
p127
g3
tp128
a(S'lazy'
p129
g6
tp130
a(S'dog.'
p131
g23
tp132
a(S'The'
p133
g23
tp134
a(S'quick'
p135
g6
tp136
a(S'brown'
p137
g6
tp138
a(S'fox'
p139
g6
tp140
a(S'jumped'
p141
g13
tp142
a(S'over'
p143
g16
tp144
a(S'the'
p145
g3
tp146
a(S'lazy'
p147
g6
tp148
a(S'dog.'
p149
g23
tp150
a(S'The'
p151
g23
tp152
a(S'quick'
p153
g6
tp154
a(S'brown'
p155
g6
tp156
a(S'fox'
p157
g6
tp158
a(S'jumped'
p159
g13
tp160
a(S'over'
p161
g16
tp162
a(S'the'
p163
g3
tp164
a(S'lazy'
p165
g6
tp166
a(S'dog.'
p167
g23
tp168
a(S'The'
p169
g23
tp170
a(S'quick'
p171
g6
tp172
a(S'brown'
p173
g6
tp174
a(S'fox'
p175
g6
tp176
a(S'jumped'
p177
g13
tp178
a(S'over'
p179
g16
tp180
a(S'the'
p181
g3
tp182
a(S'lazy'
p183
g6
tp184
a(S'dog.'
p185
g23
tp186
a(S'The'
p187
g23
tp188
a(S'quick'
p189
g6
tp190
a(S'brown'
p191
g6
tp192
a(S'fox'
p193
g6
tp194
a(S'jumped'
p195
g13
tp196
a(S'over'
p197
g16
tp198
a(S'the'
p199
g3
tp200
a(S'lazy'
p201
g6
tp202
a(S'dog.'
p203
g23
tp204
a(S'The'
p205
g23
tp206
a(S'quick'
p207
g6
tp208
a(S'brown'
p209
g6
tp210
a(S'fox'
p211
g6
tp212
a(S'jumped'
p213
g13
tp214
a(S'over'
p215
g16
tp216
a(S'the'
p217
g3
tp218
a(S'lazy'
p219
g6
tp220
a(S'dog.'
p221
g23
tp222
a(S'The'
p223
g23
tp224
a(S'quick'
p225
g6
tp226
a(S'brown'
p227
g6
tp228
a(S'fox'
p229
g6
tp230
a(S'jumped'
p231
g13
tp232
a(S'over'
p233
g16
tp234
a(S'the'
p235
g3
tp236
a(S'lazy'
p237
g6
tp238
a(S'dog.'
p239
g23
tp240
a(S'The'
p241
g23
tp242
a(S'quick'
p243
g6
tp244
a(S'brown'
p245
g6
tp246
a(S'fox'
p247
g6
tp248
a(S'jumped'
p249
g13
tp250
a(S'over'
p251
g16
tp252
a(S'the'
p253
g3
tp254
a(S'lazy'
p255
g6
tp256
a(S'dog.'
p257
g23
tp258
a(S'The'
p259
g23
tp260
a(S'quick'
p261
g6
tp262
a(S'brown'
p263
g6
tp264
a(S'fox'
p265
g6
tp266
a(S'jumped'
p267
g13
tp268
a(S'over'
p269
g16
tp270
a(S'the'
p271
g3
tp272
a(S'lazy'
p273
g6
tp274
a(S'dog.'
p275
g23
tp276
a(S'The'
p277
g23
tp278
a(S'quick'
p279
g6
tp280
a(S'brown'
p281
g6
tp282
a(S'fox'
p283
g6
tp284
a(S'jumped'
p285
g13
tp286
a(S'over'
p287
g16
tp288
a(S'the'
p289
g3
tp290
a(S'lazy'
p291
g6
tp292
a(S'dog.'
p293
g23
tp294
a(S'The'
p295
g23
tp296
a(S'quick'
p297
g6
tp298
a(S'brown'
p299
g6
tp300
a(S'fox'
p301
g6
tp302
a(S'jumped'
p303
g13
tp304
a(S'over'
p305
g16
tp306
a(S'the'
p307
g3
tp308
a(S'lazy'
p309
g6
tp310
a(S'dog.'
p311
g23
tp312
a(S'The'
p313
g23
tp314
a(S'quick'
p315
g6
tp316
a(S'brown'
p317
g6
tp318
a(S'fox'
p319
g6
tp320
a(S'jumped'
p321
g13
tp322
a(S'over'
p323
g16
tp324
a(S'the'
p325
g3
tp326
a(S'lazy'
p327
g6
tp328
a(S'dog.'
p329
g23
tp330
a(S'The'
p331
g23
tp332
a(S'quick'
p333
g6
tp334
a(S'brown'
p335
g6
tp336
a(S'fox'
p337
g6
tp338
a(S'jumped'
p339
g13
tp340
a(S'over'
p341
g16
tp342
a(S'the'
p343
g3
tp344
a(S'lazy'
p345
g6
tp346
a(S'dog.'
p347
g23
tp348
a(S'The'
p349
g23
tp350
a(S'quick'
p351
g6
tp352
a(S'brown'
p353
g6
tp354
a(S'fox'
p355
g6
tp356
a(S'jumped'
p357
g13
tp358
a(S'over'
p359
g16
tp360
a(S'the'
p361
g3
tp362
a(S'lazy'
p363
g6
tp364
a(S'dog.'
p365
g23
tp366
a(S'The'
p367
g23
tp368
a(S'quick'
p369
g6
tp370
a(S'brown'
p371
g6
tp372
a(S'fox'
p373
g6
tp374
a(S'jumped'
p375
g13
tp376
a(S'over'
p377
g16
tp378
a(S'the'
p379
g3
tp380
a(S'lazy'
p381
g6
tp382
a(S'dog.'
p383
g23
tp384
a(S'The'
p385
g23
tp386
a(S'quick'
p387
g6
tp388
a(S'brown'
p389
g6
tp390
a(S'fox'
p391
g6
tp392
a(S'jumped'
p393
g13
tp394
a(S'over'
p395
g16
tp396
a(S'the'
p397
g3
tp398
a(S'lazy'
p399
g6
tp400
a(S'dog.'
p401
g23
tp402
a(S'The'
p403
g23
tp404
a(S'quick'
p405
g6
tp406
a(S'brown'
p407
g6
tp408
a(S'fox'
p409
g6
tp410
a(S'jumped'
p411
g13
tp412
a(S'over'
p413
g16
tp414
a(S'the'
p415
g3
tp416
a(S'lazy'
p417
g6
tp418
a(S'dog.'
p419
g23
tp420
a(S'The'
p421
g23
tp422
a(S'quick'
p423
g6
tp424
a(S'brown'
p425
g6
tp426
a(S'fox'
p427
g6
tp428
a(S'jumped'
p429
g13
tp430
a(S'over'
p431
g16
tp432
a(S'the'
p433
g3
tp434
a(S'lazy'
p435
g6
tp436
a(S'dog.'
p437
g23
tp438
a(S'The'
p439
g23
tp440
a(S'quick'
p441
g6
tp442
a(S'brown'
p443
g6
tp444
a(S'fox'
p445
g6
tp446
a(S'jumped'
p447
g13
tp448
a(S'over'
p449
g16
tp450
a(S'the'
p451
g3
tp452
a(S'lazy'
p453
g6
tp454
a(S'dog.'
p455
g23
tp456
a(S'The'
p457
g23
tp458
a(S'quick'
p459
g6
tp460
a(S'brown'
p461
g6
tp462
a(S'fox'
p463
g6
tp464
a(S'jumped'
p465
g13
tp466
a(S'over'
p467
g16
tp468
a(S'the'
p469
g3
tp470
a(S'lazy'
p471
g6
tp472
a(S'dog.'
p473
g23
tp474
a(S'The'
p475
g23
tp476
a(S'quick'
p477
g6
tp478
a(S'brown'
p479
g6
tp480
a(S'fox'
p481
g6
tp482
a(S'jumped'
p483
g13
tp484
a(S'over'
p485
g16
tp486
a(S'the'
p487
g3
tp488
a(S'lazy'
p489
g6
tp490
a(S'dog.'
p491
g23
tp492
a(S'The'
p493
g23
tp494
a(S'quick'
p495
g6
tp496
a(S'brown'
p497
g6
tp498
a(S'fox'
p499
g6
tp500
a(S'jumped'
p501
g13
tp502
a(S'over'
p503
g16
tp504
a(S'the'
p505
g3
tp506
a(S'lazy'
p507
g6
tp508
a(S'dog.'
p509
g23
tp510
a(S'The'
p511
g23
tp512
a(S'quick'
p513
g6
tp514
a(S'brown'
p515
g6
tp516
a(S'fox'
p517
g6
tp518
a(S'jumped'
p519
g13
tp520
a(S'over'
p521
g16
tp522
a(S'the'
p523
g3
tp524
a(S'lazy'
p525
g6
tp526
a(S'dog.'
p527
g23
tp528
a(S'The'
p529
g23
tp530
a(S'quick'
p531
g6
tp532
a(S'brown'
p533
g6
tp534
a(S'fox'
p535
g6
tp536
a(S'jumped'
p537
g13
tp538
a(S'over'
p539
g16
tp540
a(S'the'
p541
g3
tp542
a(S'lazy'
p543
g6
tp544
a(S'dog.'
p545
g23
tp546
a(S'The'
p547
g23
tp548
a(S'quick'
p549
g6
tp550
a(S'brown'
p551
g6
tp552
a(S'fox'
p553
g6
tp554
a(S'jumped'
p555
g13
tp556
a(S'over'
p557
g16
tp558
a(S'the'
p559
g3
tp560
a(S'lazy'
p561
g6
tp562
a(S'dog.'
p563
g23
tp564
a(S'The'
p565
g23
tp566
a(S'quick'
p567
g6
tp568
a(S'brown'
p569
g6
tp570
a(S'fox'
p571
g6
tp572
a(S'jumped'
p573
g13
tp574
a(S'over'
p575
g16
tp576
a(S'the'
p577
g3
tp578
a(S'lazy'
p579
g6
tp580
a(S'dog.'
p581
g23
tp582
a(S'The'
p583
g23
tp584
a(S'quick'
p585
g6
tp586
a(S'brown'
p587
g6
tp588
a(S'fox'
p589
g6
tp590
a(S'jumped'
p591
g13
tp592
a(S'over'
p593
g16
tp594
a(S'the'
p595
g3
tp596
a(S'lazy'
p597
g6
tp598
a(S'dog.'
p599
g23
tp600
a(S'The'
p601
g23
tp602
a(S'quick'
p603
g6
tp604
a(S'brown'
p605
g6
tp606
a(S'fox'
p607
g6
tp608
a(S'jumped'
p609
g13
tp610
a(S'over'
p611
g16
tp612
a(S'the'
p613
g3
tp614
a(S'lazy'
p615
g6
tp616
a(S'dog.'
p617
g23
tp618
a(S'The'
p619
g23
tp620
a(S'quick'
p621
g6
tp622
a(S'brown'
p623
g6
tp624
a(S'fox'
p625
g6
tp626
a(S'jumped'
p627
g13
tp628
a(S'over'
p629
g16
tp630
a(S'the'
p631
g3
tp632
a(S'lazy'
p633
g6
tp634
a(S'dog.'
p635
g23
tp636
a(S'The'
p637
g23
tp638
a(S'quick'
p639
g6
tp640
a(S'brown'
p641
g6
tp642
a(S'fox'
p643
g6
tp644
a(S'jumped'
p645
g13
tp646
a(S'over'
p647
g16
tp648
a(S'the'
p649
g3
tp650
a(S'lazy'
p651
g6
tp652
a(S'dog.'
p653
g23
tp654
a(S'The'
p655
g23
tp656
a(S'quick'
p657
g6
tp658
a(S'brown'
p659
g6
tp660
a(S'fox'
p661
g6
tp662
a(S'jumped'
p663
g13
tp664
a(S'over'
p665
g16
tp666
a(S'the'
p667
g3
tp668
a(S'lazy'
p669
g6
tp670
a(S'dog.'
p671
g23
tp672
a(S'The'
p673
g23
tp674
a(S'quick'
p675
g6
tp676
a(S'brown'
p677
g6
tp678
a(S'fox'
p679
g6
tp680
a(S'jumped'
p681
g13
tp682
a(S'over'
p683
g16
tp684
a(S'the'
p685
g3
tp686
a(S'lazy'
p687
g6
tp688
a(S'dog.'
p689
g23
tp690
a(S'The'
p691
g23
tp692
a(S'quick'
p693
g6
tp694
a(S'brown'
p695
g6
tp696
a(S'fox'
p697
g6
tp698
a(S'jumped'
p699
g13
tp700
a(S'over'
p701
g16
tp702
a(S'the'
p703
g3
tp704
a(S'lazy'
p705
g6
tp706
a(S'dog.'
p707
g23
tp708
a(S'The'
p709
g23
tp710
a(S'quick'
p711
g6
tp712
a(S'brown'
p713
g6
tp714
a(S'fox'
p715
g6
tp716
a(S'jumped'
p717
g13
tp718
a(S'over'
p719
g16
tp720
a(S'the'
p721
g3
tp722
a(S'lazy'
p723
g6
tp724
a(S'dog.'
p725
g23
tp726
a(S'The'
p727
g23
tp728
a(S'quick'
p729
g6
tp730
a(S'brown'
p731
g6
tp732
a(S'fox'
p733
g6
tp734
a(S'jumped'
p735
g13
tp736
a(S'over'
p737
g16
tp738
a(S'the'
p739
g3
tp740
a(S'lazy'
p741
g6
tp742
a(S'dog.'
p743
g23
tp744
a(S'The'
p745
g23
tp746
a(S'quick'
p747
g6
tp748
a(S'brown'
p749
g6
tp750
a(S'fox'
p751
g6
tp752
a(S'jumped'
p753
g13
tp754
a(S'over'
p755
g16
tp756
a(S'the'
p757
g3
tp758
a(S'lazy'
p759
g6
tp760
a(S'dog.'
p761
g23
tp762
a(S'The'
p763
g23
tp764
a(S'quick'
p765
g6
tp766
a(S'brown'
p767
g6
tp768
a(S'fox'
p769
g6
tp770
a(S'jumped'
p771
g13
tp772
a(S'over'
p773
g16
tp774
a(S'the'
p775
g3
tp776
a(S'lazy'
p777
g6
tp778
a(S'dog.'
p779
g23
tp780
a(S'The'
p781
g23
tp782
a(S'quick'
p783
g6
tp784
a(S'brown'
p785
g6
tp786
a(S'fox'
p787
g6
tp788
a(S'jumped'
p789
g13
tp790
a(S'over'
p791
g16
tp792
a(S'the'
p793
g3
tp794
a(S'lazy'
p795
g6
tp796
a(S'dog.'
p797
g23
tp798
a(S'The'
p799
g23
tp800
a(S'quick'
p801
g6
tp802
a(S'brown'
p803
g6
tp804
a(S'fox'
p805
g6
tp806
a(S'jumped'
p807
g13
tp808
a(S'over'
p809
g16
tp810
a(S'the'
p811
g3
tp812
a(S'lazy'
p813
g6
tp814
a(S'dog.'
p815
g23
tp816
a(S'The'
p817
g23
tp818
a(S'quick'
p819
g6
tp820
a(S'brown'
p821
g6
tp822
a(S'fox'
p823
g6
tp824
a(S'jumped'
p825
g13
tp826
a(S'over'
p827
g16
tp828
a(S'the'
p829
g3
tp830
a(S'lazy'
p831
g6
tp832
a(S'dog.'
p833
g23
tp834
a(S'The'
p835
g23
tp836
a(S'quick'
p837
g6
tp838
a(S'brown'
p839
g6
tp840
a(S'fox'
p841
g6
tp842
a(S'jumped'
p843
g13
tp844
a(S'over'
p845
g16
tp846
a(S'the'
p847
g3
tp848
a(S'lazy'
p849
g6
tp850
a(S'dog.'
p851
g23
tp852
a(S'The'
p853
g23
tp854
a(S'quick'
p855
g6
tp856
a(S'brown'
p857
g6
tp858
a(S'fox'
p859
g6
tp860
a(S'jumped'
p861
g13
tp862
a(S'over'
p863
g16
tp864
a(S'the'
p865
g3
tp866
a(S'lazy'
p867
g6
tp868
a(S'dog.'
p869
g23
tp870
a(S'The'
p871
g23
tp872
a(S'quick'
p873
g6
tp874
a(S'brown'
p875
g6
tp876
a(S'fox'
p877
g6
tp878
a(S'jumped'
p879
g13
tp880
a(S'over'
p881
g16
tp882
a(S'the'
p883
g3
tp884
a(S'lazy'
p885
g6
tp886
a(S'dog.'
p887
g23
tp888
a(S'The'
p889
g23
tp890
a(S'quick'
p891
g6
tp892
a(S'brown'
p893
g6
tp894
a(S'fox'
p895
g6
tp896
a(S'jumped'
p897
g13
tp898
a(S'over'
p899
g16
tp900
a(S'the'
p901
g3
tp902
a(S'lazy'
p903
g6
tp904
a(S'dog.'
p905
g23
tp906
a(S'The'
p907
g23
tp908
a(S'quick'
p909
g6
tp910
a(S'brown'
p911
g6
tp912
a(S'fox'
p913
g6
tp914
a(S'jumped'
p915
g13
tp916
a(S'over'
p917
g16
tp918
a(S'the'
p919
g3
tp920
a(S'lazy'
p921
g6
tp922
a(S'dog.'
p923
g23
tp924
a(S'The'
p925
g23
tp926
a(S'quick'
p927
g6
tp928
a(S'brown'
p929
g6
tp930
a(S'fox'
p931
g6
tp932
a(S'jumped'
p933
g13
tp934
a(S'over'
p935
g16
tp936
a(S'the'
p937
g3
tp938
a(S'lazy'
p939
g6
tp940
a(S'dog.'
p941
g23
tp942
a(S'The'
p943
g23
tp944
a(S'quick'
p945
g6
tp946
a(S'brown'
p947
g6
tp948
a(S'fox'
p949
g6
tp950
a(S'jumped'
p951
g13
tp952
a(S'over'
p953
g16
tp954
a(S'the'
p955
g3
tp956
a(S'lazy'
p957
g6
tp958
a(S'dog.'
p959
g23
tp960
a(S'The'
p961
g23
tp962
a(S'quick'
p963
g6
tp964
a(S'brown'
p965
g6
tp966
a(S'fox'
p967
g6
tp968
a(S'jumped'
p969
g13
tp970
a(S'over'
p971
g16
tp972
a(S'the'
p973
g3
tp974
a(S'lazy'
p975
g6
tp976
a(S'dog.'
p977
g23
tp978
a(S'The'
p979
g23
tp980
a(S'quick'
p981
g6
tp982
a(S'brown'
p983
g6
tp984
a(S'fox'
p985
g6
tp986
a(S'jumped'
p987
g13
tp988
a(S'over'
p989
g16
tp990
a(S'the'
p991
g3
tp992
a(S'lazy'
p993
g6
tp994
a(S'dog.'
p995
g23
tp996
a(S'The'
p997
g23
tp998
a(S'quick'
p999
g6
tp1000
a(S'brown'
p1001
g6
tp1002
a(S'fox'
p1003
g6
tp1004
a(S'jumped'
p1005
g13
tp1006
a(S'over'
p1007
g16
tp1008
a(S'the'
p1009
g3
tp1010
a(S'lazy'
p1011
g6
tp1012
a(S'dog.'
p1013
g23
tp1014
a.